; ModuleID = 'source-C-CXX/59/938.c'
source_filename = "source-C-CXX/59/938.c"
target datalayout = "e-m:e-p270:32:32-p271:32:32-p272:64:64-i64:64-f80:128-n8:16:32:64-S128"
target triple = "x86_64-pc-linux-gnu"

@.str = private unnamed_addr constant [3 x i8] c"%d\00", align 1
@.str.1 = private unnamed_addr constant [7 x i8] c"%d %d\0A\00", align 1
@.str.2 = private unnamed_addr constant [6 x i8] c"empty\00", align 1

; Function Attrs: nofree nounwind sspstrong uwtable
define dso_local i32 @main() local_unnamed_addr #0 {
  %1 = alloca i32, align 4
  %2 = bitcast i32* %1 to i8*
  call void @llvm.lifetime.start.p0i8(i64 4, i8* nonnull %2) #3
  %3 = call i32 (i8*, ...) @__isoc99_scanf(i8* getelementptr inbounds ([3 x i8], [3 x i8]* @.str, i64 0, i64 0), i32* nonnull %1)
  %4 = load i32, i32* %1, align 4, !tbaa !5
  %5 = icmp slt i32 %4, 5
  br i1 %5, label %46, label %6

6:                                                ; preds = %0, %36
  %7 = phi i32 [ %37, %36 ], [ %4, %0 ]
  %8 = phi i32 [ %43, %36 ], [ 6, %0 ]
  %9 = phi i32 [ %42, %36 ], [ 4, %0 ]
  %10 = phi i32 [ %38, %36 ], [ 0, %0 ]
  %11 = phi i32 [ %39, %36 ], [ 3, %0 ]
  br label %12

12:                                               ; preds = %6, %16
  %13 = phi i32 [ %17, %16 ], [ 2, %6 ]
  %14 = urem i32 %11, %13
  %15 = icmp eq i32 %14, 0
  br i1 %15, label %19, label %16

16:                                               ; preds = %12
  %17 = add nuw i32 %13, 1
  %18 = icmp eq i32 %17, %9
  br i1 %18, label %36, label %12, !llvm.loop !9

19:                                               ; preds = %12
  %20 = icmp eq i32 %13, %11
  br i1 %20, label %21, label %36

21:                                               ; preds = %19
  %22 = add nuw nsw i32 %11, 2
  br label %23

23:                                               ; preds = %21, %27
  %24 = phi i32 [ 2, %21 ], [ %28, %27 ]
  %25 = urem i32 %22, %24
  %26 = icmp eq i32 %25, 0
  br i1 %26, label %30, label %27

27:                                               ; preds = %23
  %28 = add nuw i32 %24, 1
  %29 = icmp eq i32 %28, %8
  br i1 %29, label %30, label %23, !llvm.loop !11

30:                                               ; preds = %23, %27
  %31 = phi i32 [ %24, %23 ], [ %8, %27 ]
  %32 = icmp eq i32 %31, %22
  br i1 %32, label %33, label %36

33:                                               ; preds = %30
  %34 = call i32 (i8*, ...) @printf(i8* nonnull dereferenceable(1) getelementptr inbounds ([7 x i8], [7 x i8]* @.str.1, i64 0, i64 0), i32 %11, i32 %22)
  %35 = load i32, i32* %1, align 4, !tbaa !5
  br label %36

36:                                               ; preds = %16, %19, %33, %30
  %37 = phi i32 [ %35, %33 ], [ %7, %30 ], [ %7, %19 ], [ %7, %16 ]
  %38 = phi i32 [ 1, %33 ], [ %10, %30 ], [ %10, %19 ], [ %10, %16 ]
  %39 = add nuw nsw i32 %11, 1
  %40 = add nsw i32 %37, -2
  %41 = icmp slt i32 %11, %40
  %42 = add nuw i32 %9, 1
  %43 = add nuw i32 %8, 1
  br i1 %41, label %6, label %44, !llvm.loop !12

44:                                               ; preds = %36
  %45 = icmp eq i32 %38, 0
  br i1 %45, label %46, label %48

46:                                               ; preds = %0, %44
  %47 = call i32 (i8*, ...) @printf(i8* nonnull dereferenceable(1) getelementptr inbounds ([6 x i8], [6 x i8]* @.str.2, i64 0, i64 0))
  br label %48

48:                                               ; preds = %46, %44
  call void @llvm.lifetime.end.p0i8(i64 4, i8* nonnull %2) #3
  ret i32 0
}

; Function Attrs: argmemonly mustprogress nofree nosync nounwind willreturn
declare void @llvm.lifetime.start.p0i8(i64 immarg, i8* nocapture) #1

; Function Attrs: nofree nounwind
declare noundef i32 @__isoc99_scanf(i8* nocapture noundef readonly, ...) local_unnamed_addr #2

; Function Attrs: nofree nounwind
declare noundef i32 @printf(i8* nocapture noundef readonly, ...) local_unnamed_addr #2

; Function Attrs: argmemonly mustprogress nofree nosync nounwind willreturn
declare void @llvm.lifetime.end.p0i8(i64 immarg, i8* nocapture) #1


!llvm.module.flags = !{!0, !1, !2, !3}
!llvm.ident = !{!4}

!0 = !{i32 1, !"wchar_size", i32 4}
!1 = !{i32 7, !"PIC Level", i32 2}
!2 = !{i32 7, !"PIE Level", i32 2}
!3 = !{i32 7, !"uwtable", i32 1}
!4 = !{!"clang version 13.0.0"}
!5 = !{!6, !6, i64 0}
!6 = !{!"int", !7, i64 0}
!7 = !{!"omnipotent char", !8, i64 0}
!8 = !{!"Simple C/C++ TBAA"}
!9 = distinct !{!9, !10}
!10 = !{!"llvm.loop.mustprogress"}
!11 = distinct !{!11, !10}
!12 = distinct !{!12, !10}
